; Function Attrs: nounwind uwtable
define ptr @lv_group_by_index(i32 noundef %0) local_unnamed_addr #0 {
  %2 = tail call ptr @lv_ll_get_tail(ptr noundef nonnull getelementptr inbounds nuw (i8, ptr @lv_global, i64 96)) #10
  %.not8 = icmp eq ptr %2, null
  %3 = icmp eq i32 %0, 0
  %or.cond9 = or i1 %.not8, %3
  br i1 %or.cond9, label %._crit_edge, label %.lr.ph

.lr.ph:                                           ; preds = %1, %.lr.ph
  %.011 = phi ptr [ %5, %.lr.ph ], [ %2, %1 ]
  %.0610 = phi i32 [ %4, %.lr.ph ], [ 0, %1 ]
  %4 = add nuw i32 %.0610, 1
  %5 = tail call ptr @lv_ll_get_prev(ptr noundef nonnull getelementptr inbounds nuw (i8, ptr @lv_global, i64 96), ptr noundef nonnull %.011) #10
  %.not = icmp eq ptr %5, null
  %6 = icmp eq i32 %4, %0
  %or.cond = select i1 %.not, i1 true, i1 %6
  br i1 %or.cond, label %._crit_edge, label %.lr.ph, !llvm.loop !47

._crit_edge:                                      ; preds = %.lr.ph, %1
  %.0.lcssa = phi ptr [ %2, %1 ], [ %5, %.lr.ph ]
  ret ptr %.0.lcssa
}